target datalayout = "e-m:e-p270:32:32-p271:32:32-p272:64:64-i64:64-i128:128-f80:128-n8:16:32:64-S128"
target triple = "x86_64-pc-linux-gnu"

%struct.sentinelRedisInstance = type { i32, ptr, ptr, i64, ptr, ptr, i64, i64, i64, i64, i64, i64, i64, i64, i64, ptr, i32, i64, i64, ptr, ptr, i32, i32, ptr, ptr, i64, i32, i32, i64, ptr, ptr, i32, i32, i64, ptr, i64, i64, i32, i64, i64, i64, i64, ptr, ptr, ptr, ptr }

; Function Attrs: nounwind uwtable
define dso_local void @addReplyDictOfRedisInstances(ptr noundef %0, ptr noundef %1) #0 {
  %3 = alloca ptr, align 8
  %4 = alloca ptr, align 8
  %5 = alloca ptr, align 8
  %6 = alloca ptr, align 8
  %7 = alloca i64, align 8
  %8 = alloca ptr, align 8
  %9 = alloca ptr, align 8
  %10 = alloca i32, align 4
  store ptr %0, ptr %3, align 8, !tbaa !125
  store ptr %1, ptr %4, align 8, !tbaa !5
  call void @llvm.lifetime.start.p0(i64 8, ptr %5) #16
  call void @llvm.lifetime.start.p0(i64 8, ptr %6) #16
  call void @llvm.lifetime.start.p0(i64 8, ptr %7) #16
  store i64 0, ptr %7, align 8, !tbaa !205
  call void @llvm.lifetime.start.p0(i64 8, ptr %8) #16
  %11 = load ptr, ptr %3, align 8, !tbaa !125
  %12 = call ptr @addReplyDeferredLen(ptr noundef %11)
  store ptr %12, ptr %8, align 8, !tbaa !10
  %13 = load ptr, ptr %4, align 8, !tbaa !5
  %14 = call ptr @dictGetIterator(ptr noundef %13)
  store ptr %14, ptr %5, align 8, !tbaa !87
  br label %15

15:                                               ; preds = %40, %38, %2
  %16 = load ptr, ptr %5, align 8, !tbaa !87
  %17 = call ptr @dictNext(ptr noundef %16)
  store ptr %17, ptr %6, align 8, !tbaa !89
  %18 = icmp ne ptr %17, null
  br i1 %18, label %19, label %41

19:                                               ; preds = %15
  call void @llvm.lifetime.start.p0(i64 8, ptr %9) #16
  %20 = load ptr, ptr %6, align 8, !tbaa !89
  %21 = call ptr @dictGetVal(ptr noundef %20)
  store ptr %21, ptr %9, align 8, !tbaa !11
  %22 = load ptr, ptr %9, align 8, !tbaa !11
  %23 = getelementptr inbounds nuw %struct.sentinelRedisInstance, ptr %22, i32 0, i32 0
  %24 = load i32, ptr %23, align 8, !tbaa !34
  %25 = and i32 %24, 2
  %26 = icmp ne i32 %25, 0
  br i1 %26, label %27, label %33

27:                                               ; preds = %19
  %28 = load ptr, ptr %9, align 8, !tbaa !11
  %29 = getelementptr inbounds nuw %struct.sentinelRedisInstance, ptr %28, i32 0, i32 27
  %30 = load i32, ptr %29, align 4, !tbaa !184
  %31 = icmp ne i32 %30, 0
  br i1 %31, label %33, label %32

32:                                               ; preds = %27
  store i32 2, ptr %10, align 4
  br label %38, !llvm.loop !296

33:                                               ; preds = %27, %19
  %34 = load ptr, ptr %3, align 8, !tbaa !125
  %35 = load ptr, ptr %9, align 8, !tbaa !11
  call void @addReplySentinelRedisInstance(ptr noundef %34, ptr noundef %35)
  %36 = load i64, ptr %7, align 8, !tbaa !205
  %37 = add nsw i64 %36, 1
  store i64 %37, ptr %7, align 8, !tbaa !205
  store i32 0, ptr %10, align 4
  br label %38

38:                                               ; preds = %33, %32
  call void @llvm.lifetime.end.p0(i64 8, ptr %9) #16
  %39 = load i32, ptr %10, align 4
  switch i32 %39, label %46 [
    i32 0, label %40
    i32 2, label %15
  ]

40:                                               ; preds = %38
  br label %15, !llvm.loop !296

41:                                               ; preds = %15
  %42 = load ptr, ptr %5, align 8, !tbaa !87
  call void @dictReleaseIterator(ptr noundef %42)
  %43 = load ptr, ptr %3, align 8, !tbaa !125
  %44 = load ptr, ptr %8, align 8, !tbaa !10
  %45 = load i64, ptr %7, align 8, !tbaa !205
  call void @setDeferredArrayLen(ptr noundef %43, ptr noundef %44, i64 noundef %45)
  call void @llvm.lifetime.end.p0(i64 8, ptr %8) #16
  call void @llvm.lifetime.end.p0(i64 8, ptr %7) #16
  call void @llvm.lifetime.end.p0(i64 8, ptr %6) #16
  call void @llvm.lifetime.end.p0(i64 8, ptr %5) #16
  ret void

46:                                               ; preds = %38
  unreachable
}