; Function Attrs: nounwind uwtable
define dso_local void @addReplyDictOfRedisInstances(ptr noundef %0, ptr noundef %1) local_unnamed_addr #0 {
  %3 = tail call ptr @addReplyDeferredLen(ptr noundef %0) #30
  %4 = tail call ptr @dictGetIterator(ptr noundef %1) #30
  %5 = tail call ptr @dictNext(ptr noundef %4) #30
  %.not15 = icmp eq ptr %5, null
  br i1 %.not15, label %._crit_edge, label %.lr.ph

.lr.ph:                                           ; preds = %2, %15
  %6 = phi ptr [ %16, %15 ], [ %5, %2 ]
  %.016 = phi i64 [ %.1, %15 ], [ 0, %2 ]
  %7 = tail call ptr @dictGetVal(ptr noundef nonnull %6) #30
  %8 = load i32, ptr %7, align 8, !tbaa !34
  %9 = and i32 %8, 2
  %.not13 = icmp eq i32 %9, 0
  br i1 %.not13, label %13, label %10

10:                                               ; preds = %.lr.ph
  %11 = getelementptr inbounds nuw i8, ptr %7, i64 204
  %12 = load i32, ptr %11, align 4, !tbaa !157
  %.not14 = icmp eq i32 %12, 0
  br i1 %.not14, label %15, label %13, !llvm.loop !268

13:                                               ; preds = %10, %.lr.ph
  tail call void @addReplySentinelRedisInstance(ptr noundef %0, ptr noundef nonnull %7)
  %14 = add nsw i64 %.016, 1
  br label %15

15:                                               ; preds = %10, %13
  %.1 = phi i64 [ %14, %13 ], [ %.016, %10 ]
  %16 = tail call ptr @dictNext(ptr noundef %4) #30
  %.not = icmp eq ptr %16, null
  br i1 %.not, label %._crit_edge, label %.lr.ph

._crit_edge:                                      ; preds = %15, %2
  %.0.lcssa = phi i64 [ 0, %2 ], [ %.1, %15 ]
  tail call void @dictReleaseIterator(ptr noundef %4) #30
  tail call void @setDeferredArrayLen(ptr noundef %0, ptr noundef %3, i64 noundef %.0.lcssa) #30
  ret void
}